; Function Attrs: mustprogress nofree norecurse nosync nounwind willreturn memory(argmem: write) uwtable
define hidden void @je_hpdata_init(ptr noundef writeonly captures(none) initializes((0, 21), (32, 37), (96, 248)) %0, ptr noundef %1, i64 noundef %2) local_unnamed_addr #0 {
  store ptr %1, ptr %0, align 8, !tbaa !26
  %4 = getelementptr inbounds nuw i8, ptr %0, i64 8
  store i64 %2, ptr %4, align 8, !tbaa !14
  %5 = getelementptr inbounds nuw i8, ptr %0, i64 16
  store i8 0, ptr %5, align 8, !tbaa !27
  %6 = getelementptr inbounds nuw i8, ptr %0, i64 17
  store i8 1, ptr %6, align 1, !tbaa !28
  %7 = getelementptr inbounds nuw i8, ptr %0, i64 18
  store i8 0, ptr %7, align 2, !tbaa !29
  %8 = getelementptr inbounds nuw i8, ptr %0, i64 19
  store i8 0, ptr %8, align 1, !tbaa !30
  %9 = getelementptr inbounds nuw i8, ptr %0, i64 20
  store i8 0, ptr %9, align 4, !tbaa !31
  %10 = getelementptr inbounds nuw i8, ptr %0, i64 32
  %11 = getelementptr inbounds nuw i8, ptr %0, i64 96
  tail call void @llvm.memset.p0.i64(ptr noundef nonnull align 8 dereferenceable(5) %10, i8 0, i64 5, i1 false)
  store i64 512, ptr %11, align 8, !tbaa !32
  %12 = getelementptr inbounds nuw i8, ptr %0, i64 104
  tail call void @llvm.memset.p0.i64(ptr noundef nonnull align 8 dereferenceable(144) %12, i8 0, i64 144, i1 false)
  ret void
}